; Function Attrs: mustprogress uwtable
define hidden void @_ZNK4cvc58internal9BitVector17logicalRightShiftERKS1_(ptr dead_on_unwind noalias writable sret(%"class.cvc5::internal::BitVector") align 8 %0, ptr noundef nonnull align 8 dereferenceable(24) %1, ptr noundef nonnull align 8 dereferenceable(24) %2) local_unnamed_addr #3 align 2 personality ptr @__gxx_personality_v0 {
_ZN4cvc58internal7IntegerC2Ej.exit:
  %3 = alloca %"class.cvc5::internal::Integer", align 8
  %4 = alloca %"class.cvc5::internal::Integer", align 8
  %5 = alloca %"class.cvc5::internal::Integer", align 8
  %6 = getelementptr inbounds nuw i8, ptr %2, i64 8
  call void @llvm.lifetime.start.p0(i64 16, ptr nonnull %3) #16
  %7 = load i32, ptr %1, align 8, !tbaa !11
  %8 = zext i32 %7 to i64
  call void @__gmpz_init_set_ui(ptr noundef nonnull align 8 dereferenceable(16) %3, i64 noundef %8)
  %9 = invoke noundef zeroext i1 @_ZNK4cvc58internal7IntegergtERKS1_(ptr noundef nonnull align 8 dereferenceable(16) %6, ptr noundef nonnull align 8 dereferenceable(16) %3)
          to label %10 unwind label %20

10:                                               ; preds = %_ZN4cvc58internal7IntegerC2Ej.exit
  invoke void @__gmpz_clear(ptr noundef nonnull align 8 dereferenceable(16) %3)
          to label %_ZN4cvc58internal7IntegerD2Ev.exit unwind label %11

11:                                               ; preds = %10
  %12 = landingpad { ptr, i32 }
          catch ptr null
  %13 = extractvalue { ptr, i32 } %12, 0
  call void @__clang_call_terminate(ptr %13) #17
  unreachable

_ZN4cvc58internal7IntegerD2Ev.exit:               ; preds = %10
  call void @llvm.lifetime.end.p0(i64 16, ptr nonnull %3) #16
  br i1 %9, label %14, label %30

14:                                               ; preds = %_ZN4cvc58internal7IntegerD2Ev.exit
  %15 = load i32, ptr %1, align 8, !tbaa !11
  call void @llvm.lifetime.start.p0(i64 16, ptr nonnull %4) #16
  call void @__gmpz_init(ptr noundef nonnull align 8 dereferenceable(16) %4) #16
  store i32 %15, ptr %0, align 8, !tbaa !11
  %16 = getelementptr inbounds nuw i8, ptr %0, i64 8
  invoke void @_ZNK4cvc58internal7Integer9modByPow2Ej(ptr dead_on_unwind nonnull writable sret(%"class.cvc5::internal::Integer") align 8 %16, ptr noundef nonnull align 8 dereferenceable(16) %4, i32 noundef %15)
          to label %_ZN4cvc58internal9BitVectorC2EjRKNS0_7IntegerE.exit unwind label %25

_ZN4cvc58internal9BitVectorC2EjRKNS0_7IntegerE.exit: ; preds = %14
  invoke void @__gmpz_clear(ptr noundef nonnull align 8 dereferenceable(16) %4)
          to label %_ZN4cvc58internal7IntegerD2Ev.exit7 unwind label %17

17:                                               ; preds = %_ZN4cvc58internal9BitVectorC2EjRKNS0_7IntegerE.exit
  %18 = landingpad { ptr, i32 }
          catch ptr null
  %19 = extractvalue { ptr, i32 } %18, 0
  call void @__clang_call_terminate(ptr %19) #17
  unreachable

_ZN4cvc58internal7IntegerD2Ev.exit7:              ; preds = %_ZN4cvc58internal9BitVectorC2EjRKNS0_7IntegerE.exit
  call void @llvm.lifetime.end.p0(i64 16, ptr nonnull %4) #16
  br label %43

20:                                               ; preds = %_ZN4cvc58internal7IntegerC2Ej.exit
  %21 = landingpad { ptr, i32 }
          cleanup
  invoke void @__gmpz_clear(ptr noundef nonnull align 8 dereferenceable(16) %3)
          to label %_ZN4cvc58internal7IntegerD2Ev.exit8 unwind label %22

22:                                               ; preds = %20
  %23 = landingpad { ptr, i32 }
          catch ptr null
  %24 = extractvalue { ptr, i32 } %23, 0
  call void @__clang_call_terminate(ptr %24) #17
  unreachable

_ZN4cvc58internal7IntegerD2Ev.exit8:              ; preds = %20
  call void @llvm.lifetime.end.p0(i64 16, ptr nonnull %3) #16
  br label %44

25:                                               ; preds = %14
  %26 = landingpad { ptr, i32 }
          cleanup
  invoke void @__gmpz_clear(ptr noundef nonnull align 8 dereferenceable(16) %4)
          to label %_ZN4cvc58internal7IntegerD2Ev.exit9 unwind label %27

27:                                               ; preds = %25
  %28 = landingpad { ptr, i32 }
          catch ptr null
  %29 = extractvalue { ptr, i32 } %28, 0
  call void @__clang_call_terminate(ptr %29) #17
  unreachable

_ZN4cvc58internal7IntegerD2Ev.exit9:              ; preds = %25
  call void @llvm.lifetime.end.p0(i64 16, ptr nonnull %4) #16
  br label %44

30:                                               ; preds = %_ZN4cvc58internal7IntegerD2Ev.exit
  %31 = call noundef i32 @_ZNK4cvc58internal7Integer13toUnsignedIntEv(ptr noundef nonnull align 8 dereferenceable(16) %6)
  call void @llvm.lifetime.start.p0(i64 16, ptr nonnull %5) #16
  %32 = getelementptr inbounds nuw i8, ptr %1, i64 8
  call void @_ZNK4cvc58internal7Integer9divByPow2Ej(ptr dead_on_unwind nonnull writable sret(%"class.cvc5::internal::Integer") align 8 %5, ptr noundef nonnull align 8 dereferenceable(16) %32, i32 noundef %31)
  %33 = load i32, ptr %1, align 8, !tbaa !11
  store i32 %33, ptr %0, align 8, !tbaa !11
  %34 = getelementptr inbounds nuw i8, ptr %0, i64 8
  invoke void @_ZNK4cvc58internal7Integer9modByPow2Ej(ptr dead_on_unwind nonnull writable sret(%"class.cvc5::internal::Integer") align 8 %34, ptr noundef nonnull align 8 dereferenceable(16) %5, i32 noundef %33)
          to label %_ZN4cvc58internal9BitVectorC2EjRKNS0_7IntegerE.exit10 unwind label %38

_ZN4cvc58internal9BitVectorC2EjRKNS0_7IntegerE.exit10: ; preds = %30
  invoke void @__gmpz_clear(ptr noundef nonnull align 8 dereferenceable(16) %5)
          to label %_ZN4cvc58internal7IntegerD2Ev.exit11 unwind label %35

35:                                               ; preds = %_ZN4cvc58internal9BitVectorC2EjRKNS0_7IntegerE.exit10
  %36 = landingpad { ptr, i32 }
          catch ptr null
  %37 = extractvalue { ptr, i32 } %36, 0
  call void @__clang_call_terminate(ptr %37) #17
  unreachable

_ZN4cvc58internal7IntegerD2Ev.exit11:             ; preds = %_ZN4cvc58internal9BitVectorC2EjRKNS0_7IntegerE.exit10
  call void @llvm.lifetime.end.p0(i64 16, ptr nonnull %5) #16
  br label %43

38:                                               ; preds = %30
  %39 = landingpad { ptr, i32 }
          cleanup
  invoke void @__gmpz_clear(ptr noundef nonnull align 8 dereferenceable(16) %5)
          to label %_ZN4cvc58internal7IntegerD2Ev.exit12 unwind label %40

40:                                               ; preds = %38
  %41 = landingpad { ptr, i32 }
          catch ptr null
  %42 = extractvalue { ptr, i32 } %41, 0
  call void @__clang_call_terminate(ptr %42) #17
  unreachable

_ZN4cvc58internal7IntegerD2Ev.exit12:             ; preds = %38
  call void @llvm.lifetime.end.p0(i64 16, ptr nonnull %5) #16
  br label %44

43:                                               ; preds = %_ZN4cvc58internal7IntegerD2Ev.exit11, %_ZN4cvc58internal7IntegerD2Ev.exit7
  ret void

44:                                               ; preds = %_ZN4cvc58internal7IntegerD2Ev.exit12, %_ZN4cvc58internal7IntegerD2Ev.exit9, %_ZN4cvc58internal7IntegerD2Ev.exit8
  %.pn = phi { ptr, i32 } [ %26, %_ZN4cvc58internal7IntegerD2Ev.exit9 ], [ %39, %_ZN4cvc58internal7IntegerD2Ev.exit12 ], [ %21, %_ZN4cvc58internal7IntegerD2Ev.exit8 ]
  resume { ptr, i32 } %.pn
}